(iapp.hangman
Play
p0
(dp1
S'category'
p2
S'The Beatles Songs'
p3
sS'ltrs_selectd'
p4
(lp5
sS'ltrs_list'
p6
(dp7
I65
S'A'
p8
sI66
S'B'
p9
sI67
S'C'
p10
sI68
S'D'
p11
sI69
S'E'
p12
sI70
S'F'
p13
sI71
S'G'
p14
sI72
S'H'
p15
sI73
S'I'
p16
sI74
S'J'
p17
sI75
S'K'
p18
sI76
S'L'
p19
sI77
S'M'
p20
sI78
S'N'
p21
sI79
S'O'
p22
sI80
S'P'
p23
sI81
S'Q'
p24
sI82
S'R'
p25
sI83
S'S'
p26
sI84
S'T'
p27
sI85
S'U'
p28
sI86
S'V'
p29
sI87
S'W'
p30
sI88
S'X'
p31
sI89
S'Y'
p32
sI90
S'Z'
p33
ssS'left_try'
p34
I7
sS'ltrs_in_line'
p35
(lp36
I77
aI65
aI82
aI67
aI72
aI79
aI70
aI84
aI69
aI78
aI73
aI83
asS'attempts'
p37
I1
sS'line'
p38
S'March Of The Meanies'
p39
sS'max_try'
p40
I7
sS'ltrs_gussed'
p41
(lp42
sb.